target datalayout = "e-m:e-p270:32:32-p271:32:32-p272:64:64-i64:64-i128:128-f80:128-n8:16:32:64-S128"
target triple = "x86_64-pc-linux-gnu"

%"class.llvm::StringRef" = type { ptr, i64 }
%"class.clang::targets::ARMTargetInfo" = type { %"class.clang::TargetInfo.base", %"class.std::__cxx11::basic_string", %"class.std::__cxx11::basic_string", %"class.llvm::StringRef", %"class.llvm::StringRef", i32, i32, i32, i32, i32, i32, i32, i32 }
%"class.clang::TargetInfo.base" = type <{ ptr, %"struct.clang::TransferrableTargetInfo.base", %"class.llvm::RefCountedBase", %"class.std::shared_ptr", %"class.llvm::Triple", i8, i8, i8, i8, i8, i8, i8, i8, i8, i8, i8, i8, i8, i8, i8, i8, %"class.std::__cxx11::basic_string", ptr, ptr, i8, i8, [2 x i8], %"class.clang::TargetCXXABI", ptr, %"class.llvm::StringRef", %"class.llvm::VersionTuple", i32, i32, %"class.std::optional", %"class.std::optional.0", %"class.llvm::StringSet", i8 }>
%"struct.clang::TransferrableTargetInfo.base" = type <{ i8, i8, i8, i8, i8, i8, i8, i8, i8, i8, i8, i8, i8, i8, i8, i8, i8, i8, i8, i8, i8, i8, i8, i8, i8, [3 x i8], %"class.std::optional", i8, i8, i8, i8, i8, i8, i8, i8, i8, i8, i8, i8, i8, i8, i8, i8, i8, i8, i16, i16, [2 x i8], i32, i32, [4 x i8], ptr, ptr, ptr, ptr, ptr, ptr, ptr, i32, i32, i32, i32, i32, i32, i32, i32, i32, i32, i32, i32, i8, [3 x i8], i32, i32 }>
%"class.llvm::RefCountedBase" = type { i32 }
%"class.std::shared_ptr" = type { %"class.std::__shared_ptr" }
%"class.std::__shared_ptr" = type { ptr, %"class.std::__shared_count" }
%"class.std::__shared_count" = type { ptr }
%"class.llvm::Triple" = type { %"class.std::__cxx11::basic_string", i32, i32, i32, i32, i32, i32 }
%"class.clang::TargetCXXABI" = type { i32 }
%"class.llvm::VersionTuple" = type { i64, i64 }
%"class.std::optional" = type { %"struct.std::_Optional_base" }
%"struct.std::_Optional_base" = type { %"struct.std::_Optional_payload" }
%"struct.std::_Optional_payload" = type { %"struct.std::_Optional_payload_base.base", [3 x i8] }
%"struct.std::_Optional_payload_base.base" = type <{ %"union.std::_Optional_payload_base<unsigned int>::_Storage", i8 }>
%"union.std::_Optional_payload_base<unsigned int>::_Storage" = type { i32 }
%"class.std::optional.0" = type { %"struct.std::_Optional_base.1" }
%"struct.std::_Optional_base.1" = type { %"struct.std::_Optional_payload.3" }
%"struct.std::_Optional_payload.3" = type { %"struct.std::_Optional_payload.base.7", [7 x i8] }
%"struct.std::_Optional_payload.base.7" = type { %"struct.std::_Optional_payload_base.base.6" }
%"struct.std::_Optional_payload_base.base.6" = type <{ %"union.std::_Optional_payload_base<llvm::Triple>::_Storage", i8 }>
%"union.std::_Optional_payload_base<llvm::Triple>::_Storage" = type { %"class.llvm::Triple" }
%"class.llvm::StringSet" = type { %"class.llvm::StringMap" }
%"class.llvm::StringMap" = type { %"class.llvm::StringMapImpl" }
%"class.llvm::StringMapImpl" = type { ptr, i32, i32, i32, i32 }
%"class.std::__cxx11::basic_string" = type { %"struct.std::__cxx11::basic_string<char>::_Alloc_hider", i64, %union.anon }
%"struct.std::__cxx11::basic_string<char>::_Alloc_hider" = type { ptr }
%union.anon = type { i64, [8 x i8] }
%"struct.clang::TransferrableTargetInfo" = type <{ i8, i8, i8, i8, i8, i8, i8, i8, i8, i8, i8, i8, i8, i8, i8, i8, i8, i8, i8, i8, i8, i8, i8, i8, i8, [3 x i8], %"class.std::optional", i8, i8, i8, i8, i8, i8, i8, i8, i8, i8, i8, i8, i8, i8, i8, i8, i8, i8, i16, i16, [2 x i8], i32, i32, [4 x i8], ptr, ptr, ptr, ptr, ptr, ptr, ptr, i32, i32, i32, i32, i32, i32, i32, i32, i32, i32, i32, i32, i8, [3 x i8], i32, i32, [4 x i8] }>
%"class.clang::TargetInfo" = type <{ ptr, %"struct.clang::TransferrableTargetInfo.base", %"class.llvm::RefCountedBase", %"class.std::shared_ptr", %"class.llvm::Triple", i8, i8, i8, i8, i8, i8, i8, i8, i8, i8, i8, i8, i8, i8, i8, i8, %"class.std::__cxx11::basic_string", ptr, ptr, i8, i8, [2 x i8], %"class.clang::TargetCXXABI", ptr, %"class.llvm::StringRef", %"class.llvm::VersionTuple", i32, i32, %"class.std::optional", %"class.std::optional.0", %"class.llvm::StringSet", i8, [7 x i8] }>

@.str.2 = private unnamed_addr constant [2 x i8] c"_\00", align 1
@.str.4 = private unnamed_addr constant [1 x i8] zeroinitializer, align 1
@.str.8 = private unnamed_addr constant [41 x i8] c"e-m:o-p:32:32-Fi8-i64:64-a:0:32-n32-S128\00", align 1
@.str.9 = private unnamed_addr constant [65 x i8] c"E-m:o-p:32:32-Fi8-f64:32:64-v64:32:64-v128:32:128-a:0:32-n32-S32\00", align 1
@.str.10 = private unnamed_addr constant [65 x i8] c"e-m:o-p:32:32-Fi8-f64:32:64-v64:32:64-v128:32:128-a:0:32-n32-S32\00", align 1
@.str.11 = private unnamed_addr constant [65 x i8] c"E-m:e-p:32:32-Fi8-f64:32:64-v64:32:64-v128:32:128-a:0:32-n32-S32\00", align 1
@.str.12 = private unnamed_addr constant [65 x i8] c"e-m:e-p:32:32-Fi8-f64:32:64-v64:32:64-v128:32:128-a:0:32-n32-S32\00", align 1

; Function Attrs: mustprogress nounwind uwtable
define linkonce_odr hidden noundef i64 @_ZNSt11char_traitsIcE6lengthEPKc(ptr noundef %0) #0 comdat align 2 {
  %2 = alloca ptr, align 8
  store ptr %0, ptr %2, align 8
  %3 = load ptr, ptr %2, align 8
  %4 = call i64 @strlen(ptr noundef %3) #12
  ret i64 %4
}

; Function Attrs: mustprogress nounwind uwtable
define linkonce_odr hidden noundef i32 @_ZNK4llvm6Triple15getObjectFormatEv(ptr noundef nonnull align 8 dereferenceable(56) %0) #0 comdat align 2 {
  %2 = alloca ptr, align 8
  store ptr %0, ptr %2, align 8
  %3 = load ptr, ptr %2, align 8
  %4 = getelementptr inbounds nuw %"class.llvm::Triple", ptr %3, i32 0, i32 6
  %5 = load i32, ptr %4, align 4
  ret i32 %5
}

; Function Attrs: mustprogress nounwind uwtable
define linkonce_odr hidden void @_ZN4llvm9StringRefC2EPKc(ptr noundef nonnull align 8 dereferenceable(16) %0, ptr noundef %1) unnamed_addr #0 comdat align 2 {
  %3 = alloca ptr, align 8
  %4 = alloca ptr, align 8
  store ptr %0, ptr %3, align 8
  store ptr %1, ptr %4, align 8
  %5 = load ptr, ptr %3, align 8
  %6 = getelementptr inbounds nuw %"class.llvm::StringRef", ptr %5, i32 0, i32 0
  %7 = load ptr, ptr %4, align 8
  store ptr %7, ptr %6, align 8
  %8 = getelementptr inbounds nuw %"class.llvm::StringRef", ptr %5, i32 0, i32 1
  %9 = load ptr, ptr %4, align 8
  %10 = icmp ne ptr %9, null
  br i1 %10, label %11, label %14

11:                                               ; preds = %2
  %12 = load ptr, ptr %4, align 8
  %13 = call noundef i64 @_ZNSt11char_traitsIcE6lengthEPKc(ptr noundef %12)
  br label %15

14:                                               ; preds = %2
  br label %15

15:                                               ; preds = %14, %11
  %16 = phi i64 [ %13, %11 ], [ 0, %14 ]
  store i64 %16, ptr %8, align 8
  ret void
}

; Function Attrs: mustprogress nounwind uwtable
define linkonce_odr hidden noundef zeroext i1 @_ZNK4llvm6Triple18isOSBinFormatMachOEv(ptr noundef nonnull align 8 dereferenceable(56) %0) #0 comdat align 2 {
  %2 = alloca ptr, align 8
  store ptr %0, ptr %2, align 8
  %3 = load ptr, ptr %2, align 8
  %4 = call noundef i32 @_ZNK4llvm6Triple15getObjectFormatEv(ptr noundef nonnull align 8 dereferenceable(56) %3)
  %5 = icmp eq i32 %4, 5
  ret i1 %5
}

; Function Attrs: mustprogress nounwind uwtable
define linkonce_odr hidden noundef nonnull align 8 dereferenceable(56) ptr @_ZNK5clang10TargetInfo9getTripleEv(ptr noundef nonnull align 8 dereferenceable(489) %0) #0 comdat align 2 {
  %2 = alloca ptr, align 8
  store ptr %0, ptr %2, align 8
  %3 = load ptr, ptr %2, align 8
  %4 = getelementptr inbounds nuw %"class.clang::TargetInfo", ptr %3, i32 0, i32 4
  ret ptr %4
}

; Function Attrs: mustprogress nounwind uwtable
define hidden void @_ZN5clang7targets13ARMTargetInfo10setABIAPCSEb(ptr noundef nonnull align 8 dereferenceable(624) %0, i1 noundef zeroext %1) #0 align 2 {
  %3 = alloca ptr, align 8
  %4 = alloca i8, align 1
  %5 = alloca ptr, align 8
  %6 = alloca %"class.llvm::StringRef", align 8
  %7 = alloca %"class.llvm::StringRef", align 8
  %8 = alloca %"class.llvm::StringRef", align 8
  store ptr %0, ptr %3, align 8
  %9 = zext i1 %1 to i8
  store i8 %9, ptr %4, align 1
  %10 = load ptr, ptr %3, align 8
  %11 = call noundef nonnull align 8 dereferenceable(56) ptr @_ZNK5clang10TargetInfo9getTripleEv(ptr noundef nonnull align 8 dereferenceable(489) %10)
  store ptr %11, ptr %5, align 8
  %12 = getelementptr inbounds nuw %"class.clang::targets::ARMTargetInfo", ptr %10, i32 0, i32 10
  %13 = load i32, ptr %12, align 4
  %14 = and i32 %13, -129
  %15 = or i32 %14, 0
  store i32 %15, ptr %12, align 4
  %16 = load i8, ptr %4, align 1
  %17 = trunc i8 %16 to i1
  br i1 %17, label %18, label %27

18:                                               ; preds = %2
  %19 = getelementptr inbounds i8, ptr %10, i64 8
  %20 = getelementptr inbounds nuw %"struct.clang::TransferrableTargetInfo", ptr %19, i32 0, i32 45
  store i16 64, ptr %20, align 2
  %21 = getelementptr inbounds i8, ptr %10, i64 8
  %22 = getelementptr inbounds nuw %"struct.clang::TransferrableTargetInfo", ptr %21, i32 0, i32 15
  store i8 64, ptr %22, align 1
  %23 = getelementptr inbounds i8, ptr %10, i64 8
  %24 = getelementptr inbounds nuw %"struct.clang::TransferrableTargetInfo", ptr %23, i32 0, i32 23
  store i8 64, ptr %24, align 1
  %25 = getelementptr inbounds i8, ptr %10, i64 8
  %26 = getelementptr inbounds nuw %"struct.clang::TransferrableTargetInfo", ptr %25, i32 0, i32 13
  store i8 64, ptr %26, align 1
  br label %36

27:                                               ; preds = %2
  %28 = getelementptr inbounds i8, ptr %10, i64 8
  %29 = getelementptr inbounds nuw %"struct.clang::TransferrableTargetInfo", ptr %28, i32 0, i32 45
  store i16 32, ptr %29, align 2
  %30 = getelementptr inbounds i8, ptr %10, i64 8
  %31 = getelementptr inbounds nuw %"struct.clang::TransferrableTargetInfo", ptr %30, i32 0, i32 15
  store i8 32, ptr %31, align 1
  %32 = getelementptr inbounds i8, ptr %10, i64 8
  %33 = getelementptr inbounds nuw %"struct.clang::TransferrableTargetInfo", ptr %32, i32 0, i32 23
  store i8 32, ptr %33, align 1
  %34 = getelementptr inbounds i8, ptr %10, i64 8
  %35 = getelementptr inbounds nuw %"struct.clang::TransferrableTargetInfo", ptr %34, i32 0, i32 13
  store i8 32, ptr %35, align 1
  br label %36

36:                                               ; preds = %27, %18
  %37 = getelementptr inbounds i8, ptr %10, i64 8
  %38 = getelementptr inbounds nuw %"struct.clang::TransferrableTargetInfo", ptr %37, i32 0, i32 9
  store i8 16, ptr %38, align 1
  %39 = getelementptr inbounds i8, ptr %10, i64 8
  %40 = getelementptr inbounds nuw %"struct.clang::TransferrableTargetInfo", ptr %39, i32 0, i32 8
  store i8 16, ptr %40, align 8
  %41 = call noundef nonnull align 1 ptr @_ZN4llvm11APFloatBase6BFloatEv() #11
  %42 = getelementptr inbounds i8, ptr %10, i64 8
  %43 = getelementptr inbounds nuw %"struct.clang::TransferrableTargetInfo", ptr %42, i32 0, i32 52
  store ptr %41, ptr %43, align 8
  %44 = getelementptr inbounds i8, ptr %10, i64 8
  %45 = getelementptr inbounds nuw %"struct.clang::TransferrableTargetInfo", ptr %44, i32 0, i32 62
  store i32 5, ptr %45, align 8
  %46 = getelementptr inbounds i8, ptr %10, i64 8
  %47 = getelementptr inbounds nuw %"struct.clang::TransferrableTargetInfo", ptr %46, i32 0, i32 70
  %48 = load i8, ptr %47, align 8
  %49 = and i8 %48, -3
  %50 = or i8 %49, 0
  store i8 %50, ptr %47, align 8
  %51 = getelementptr inbounds i8, ptr %10, i64 8
  %52 = getelementptr inbounds nuw %"struct.clang::TransferrableTargetInfo", ptr %51, i32 0, i32 72
  store i32 32, ptr %52, align 4
  %53 = load ptr, ptr %5, align 8
  %54 = call noundef zeroext i1 @_ZNK4llvm6Triple18isOSBinFormatMachOEv(ptr noundef nonnull align 8 dereferenceable(56) %53)
  br i1 %54, label %55, label %63

55:                                               ; preds = %36
  %56 = load i8, ptr %4, align 1
  %57 = trunc i8 %56 to i1
  br i1 %57, label %58, label %63

58:                                               ; preds = %55
  call void @_ZN4llvm9StringRefC2EPKc(ptr noundef nonnull align 8 dereferenceable(16) %6, ptr noundef @.str.8)
  %59 = getelementptr inbounds nuw { ptr, i64 }, ptr %6, i32 0, i32 0
  %60 = load ptr, ptr %59, align 8
  %61 = getelementptr inbounds nuw { ptr, i64 }, ptr %6, i32 0, i32 1
  %62 = load i64, ptr %61, align 8
  call void @_ZN5clang10TargetInfo15resetDataLayoutEN4llvm9StringRefEPKc(ptr noundef nonnull align 8 dereferenceable(489) %10, ptr %60, i64 %62, ptr noundef @.str.2)
  br label %93

63:                                               ; preds = %55, %36
  %64 = load ptr, ptr %5, align 8
  %65 = call noundef zeroext i1 @_ZNK4llvm6Triple18isOSBinFormatMachOEv(ptr noundef nonnull align 8 dereferenceable(56) %64)
  br i1 %65, label %66, label %79

66:                                               ; preds = %63
  %67 = getelementptr inbounds nuw %"class.clang::TargetInfo", ptr %10, i32 0, i32 5
  %68 = load i8, ptr %67, align 8
  %69 = trunc i8 %68 to i1
  br i1 %69, label %70, label %71

70:                                               ; preds = %66
  br label %72

71:                                               ; preds = %66
  br label %72

72:                                               ; preds = %71, %70
  %73 = phi ptr [ @.str.9, %70 ], [ @.str.10, %71 ]
  %74 = getelementptr inbounds [65 x i8], ptr %73, i64 0, i64 0
  call void @_ZN4llvm9StringRefC2EPKc(ptr noundef nonnull align 8 dereferenceable(16) %7, ptr noundef %74)
  %75 = getelementptr inbounds nuw { ptr, i64 }, ptr %7, i32 0, i32 0
  %76 = load ptr, ptr %75, align 8
  %77 = getelementptr inbounds nuw { ptr, i64 }, ptr %7, i32 0, i32 1
  %78 = load i64, ptr %77, align 8
  call void @_ZN5clang10TargetInfo15resetDataLayoutEN4llvm9StringRefEPKc(ptr noundef nonnull align 8 dereferenceable(489) %10, ptr %76, i64 %78, ptr noundef @.str.2)
  br label %92

79:                                               ; preds = %63
  %80 = getelementptr inbounds nuw %"class.clang::TargetInfo", ptr %10, i32 0, i32 5
  %81 = load i8, ptr %80, align 8
  %82 = trunc i8 %81 to i1
  br i1 %82, label %83, label %84

83:                                               ; preds = %79
  br label %85

84:                                               ; preds = %79
  br label %85

85:                                               ; preds = %84, %83
  %86 = phi ptr [ @.str.11, %83 ], [ @.str.12, %84 ]
  %87 = getelementptr inbounds [65 x i8], ptr %86, i64 0, i64 0
  call void @_ZN4llvm9StringRefC2EPKc(ptr noundef nonnull align 8 dereferenceable(16) %8, ptr noundef %87)
  %88 = getelementptr inbounds nuw { ptr, i64 }, ptr %8, i32 0, i32 0
  %89 = load ptr, ptr %88, align 8
  %90 = getelementptr inbounds nuw { ptr, i64 }, ptr %8, i32 0, i32 1
  %91 = load i64, ptr %90, align 8
  call void @_ZN5clang10TargetInfo15resetDataLayoutEN4llvm9StringRefEPKc(ptr noundef nonnull align 8 dereferenceable(489) %10, ptr %89, i64 %91, ptr noundef @.str.4)
  br label %92

92:                                               ; preds = %85, %72
  br label %93

93:                                               ; preds = %92, %58
  ret void
}