; Function Attrs: mustprogress nounwind uwtable
define hidden void @_ZN5clang7targets13ARMTargetInfo10setABIAPCSEb(ptr noundef nonnull align 8 dereferenceable(624) %0, i1 noundef zeroext %1) local_unnamed_addr #0 align 2 {
  %3 = getelementptr inbounds nuw i8, ptr %0, i64 612
  %4 = load i32, ptr %3, align 4
  %5 = and i32 %4, -129
  store i32 %5, ptr %3, align 4
  %spec.select = select i1 %1, i16 64, i16 32
  %spec.select12 = select i1 %1, i8 64, i8 32
  %6 = getelementptr inbounds i8, ptr %0, i64 62
  store i16 %spec.select, ptr %6, align 2
  %7 = getelementptr inbounds i8, ptr %0, i64 23
  store i8 %spec.select12, ptr %7, align 1
  %8 = getelementptr inbounds i8, ptr %0, i64 31
  store i8 %spec.select12, ptr %8, align 1
  %9 = getelementptr inbounds i8, ptr %0, i64 21
  store i8 %spec.select12, ptr %9, align 1
  %10 = getelementptr inbounds i8, ptr %0, i64 17
  store i8 16, ptr %10, align 1
  %11 = getelementptr inbounds i8, ptr %0, i64 16
  store i8 16, ptr %11, align 8
  %12 = tail call noundef nonnull align 1 ptr @_ZN4llvm11APFloatBase6BFloatEv() #23
  %13 = getelementptr inbounds i8, ptr %0, i64 88
  store ptr %12, ptr %13, align 8
  %14 = getelementptr inbounds i8, ptr %0, i64 152
  store i32 5, ptr %14, align 8
  %15 = getelementptr inbounds i8, ptr %0, i64 184
  %16 = load i8, ptr %15, align 8
  %17 = and i8 %16, -3
  store i8 %17, ptr %15, align 8
  %18 = getelementptr inbounds i8, ptr %0, i64 188
  store i32 32, ptr %18, align 4
  %19 = getelementptr inbounds i8, ptr %0, i64 268
  %20 = load i32, ptr %19, align 4
  %21 = icmp eq i32 %20, 5
  %brmerge.not = and i1 %1, %21
  br i1 %brmerge.not, label %22, label %23

22:                                               ; preds = %2
  tail call void @_ZN5clang10TargetInfo15resetDataLayoutEN4llvm9StringRefEPKc(ptr noundef nonnull align 8 dereferenceable(489) %0, ptr nonnull @.str.8, i64 40, ptr noundef nonnull @.str.2) #24
  br label %29

23:                                               ; preds = %2
  %24 = getelementptr inbounds nuw i8, ptr %0, i64 272
  %25 = load i8, ptr %24, align 8
  %26 = trunc i8 %25 to i1
  br i1 %21, label %27, label %28

27:                                               ; preds = %23
  %.str.9..str.10 = select i1 %26, ptr @.str.9, ptr @.str.10
  tail call void @_ZN5clang10TargetInfo15resetDataLayoutEN4llvm9StringRefEPKc(ptr noundef nonnull align 8 dereferenceable(489) %0, ptr nonnull %.str.9..str.10, i64 64, ptr noundef nonnull @.str.2) #24
  br label %29

28:                                               ; preds = %23
  %.str.11..str.12 = select i1 %26, ptr @.str.11, ptr @.str.12
  tail call void @_ZN5clang10TargetInfo15resetDataLayoutEN4llvm9StringRefEPKc(ptr noundef nonnull align 8 dereferenceable(489) %0, ptr nonnull %.str.11..str.12, i64 64, ptr noundef nonnull @.str.4) #24
  br label %29

29:                                               ; preds = %27, %28, %22
  ret void
}